; Function Attrs: nounwind uwtable
define ptr @l_Lean_Meta_synthInstance_x3f___lambda__3(ptr noundef %0, ptr noundef %1, ptr noundef %2, ptr readnone captures(none) %3, ptr readnone captures(none) %4, ptr noundef %5, ptr readnone captures(none) %6, ptr readnone captures(none) %7, ptr noundef %8) local_unnamed_addr #1 {
  %10 = ptrtoint ptr %2 to i64
  %11 = and i64 %10, 1
  %.not = icmp eq i64 %11, 0
  br i1 %.not, label %12, label %lean_inc.exit25

12:                                               ; preds = %9
  %.val.i = load i32, ptr %2, align 4, !tbaa !4
  %13 = icmp sgt i32 %.val.i, 0
  br i1 %13, label %14, label %16, !prof !11

14:                                               ; preds = %12
  %15 = add nuw i32 %.val.i, 1
  store i32 %15, ptr %2, align 4, !tbaa !4
  br label %lean_inc.exit25

16:                                               ; preds = %12
  %.not.i28 = icmp eq i32 %.val.i, 0
  br i1 %.not.i28, label %lean_inc.exit25, label %17

17:                                               ; preds = %16
  tail call void @lean_inc_ref_cold(ptr noundef nonnull %2) #7
  br label %lean_inc.exit25

lean_inc.exit25:                                  ; preds = %17, %16, %14, %9
  %18 = tail call ptr @l___private_Lean_Meta_SynthInstance_0__Lean_Meta_cacheResult(ptr noundef %0, ptr noundef %1, ptr noundef %2, ptr poison, ptr noundef %5, ptr poison, ptr poison, ptr noundef %8)
  %.val = load i32, ptr %18, align 4, !tbaa !4
  %19 = icmp eq i32 %.val, 1
  br i1 %19, label %20, label %32

20:                                               ; preds = %lean_inc.exit25
  %21 = getelementptr inbounds nuw i8, ptr %18, i64 8
  %22 = load ptr, ptr %21, align 8, !tbaa !9
  %23 = ptrtoint ptr %22 to i64
  %24 = and i64 %23, 1
  %.not34 = icmp eq i64 %24, 0
  br i1 %.not34, label %25, label %lean_dec.exit24

25:                                               ; preds = %20
  %26 = load i32, ptr %22, align 4, !tbaa !4
  %27 = icmp sgt i32 %26, 1
  br i1 %27, label %28, label %30, !prof !11

28:                                               ; preds = %25
  %29 = add nsw i32 %26, -1
  store i32 %29, ptr %22, align 4, !tbaa !4
  br label %lean_dec.exit24

30:                                               ; preds = %25
  %.not.i = icmp eq i32 %26, 0
  br i1 %.not.i, label %lean_dec.exit24, label %31

31:                                               ; preds = %30
  tail call void @lean_dec_ref_cold(ptr noundef nonnull %22) #7
  br label %lean_dec.exit24

lean_dec.exit24:                                  ; preds = %31, %30, %28, %20
  store ptr %2, ptr %21, align 8, !tbaa !9
  br label %58

32:                                               ; preds = %lean_inc.exit25
  %33 = getelementptr inbounds nuw i8, ptr %18, i64 16
  %34 = load ptr, ptr %33, align 8, !tbaa !9
  %35 = ptrtoint ptr %34 to i64
  %36 = and i64 %35, 1
  %.not32 = icmp eq i64 %36, 0
  br i1 %.not32, label %37, label %lean_inc.exit

37:                                               ; preds = %32
  %.val.i29 = load i32, ptr %34, align 4, !tbaa !4
  %38 = icmp sgt i32 %.val.i29, 0
  br i1 %38, label %39, label %41, !prof !11

39:                                               ; preds = %37
  %40 = add nuw i32 %.val.i29, 1
  store i32 %40, ptr %34, align 4, !tbaa !4
  br label %lean_inc.exit

41:                                               ; preds = %37
  %.not.i30 = icmp eq i32 %.val.i29, 0
  br i1 %.not.i30, label %lean_inc.exit, label %42

42:                                               ; preds = %41
  tail call void @lean_inc_ref_cold(ptr noundef nonnull %34) #7
  br label %lean_inc.exit

lean_inc.exit:                                    ; preds = %42, %41, %39, %32
  %43 = ptrtoint ptr %18 to i64
  %44 = and i64 %43, 1
  %.not33 = icmp eq i64 %44, 0
  br i1 %.not33, label %45, label %lean_dec.exit

45:                                               ; preds = %lean_inc.exit
  %46 = load i32, ptr %18, align 4, !tbaa !4
  %47 = icmp sgt i32 %46, 1
  br i1 %47, label %48, label %50, !prof !11

48:                                               ; preds = %45
  %49 = add nsw i32 %46, -1
  store i32 %49, ptr %18, align 4, !tbaa !4
  br label %lean_dec.exit

50:                                               ; preds = %45
  %.not.i26 = icmp eq i32 %46, 0
  br i1 %.not.i26, label %lean_dec.exit, label %51

51:                                               ; preds = %50
  tail call void @lean_dec_ref_cold(ptr noundef nonnull %18) #7
  br label %lean_dec.exit

lean_dec.exit:                                    ; preds = %51, %50, %48, %lean_inc.exit
  tail call void @lean_inc_heartbeat() #7
  %52 = tail call noalias ptr @mi_malloc_small(i64 noundef 24) #7
  %53 = icmp eq ptr %52, null
  br i1 %53, label %54, label %lean_alloc_ctor.exit

54:                                               ; preds = %lean_dec.exit
  tail call void @lean_internal_panic_out_of_memory() #8
  unreachable

lean_alloc_ctor.exit:                             ; preds = %lean_dec.exit
  %55 = getelementptr inbounds nuw i8, ptr %52, i64 4
  store i32 1, ptr %52, align 4, !tbaa !4
  store i32 131096, ptr %55, align 4
  %56 = getelementptr inbounds nuw i8, ptr %52, i64 8
  store ptr %2, ptr %56, align 8, !tbaa !9
  %57 = getelementptr inbounds nuw i8, ptr %52, i64 16
  store ptr %34, ptr %57, align 8, !tbaa !9
  br label %58

58:                                               ; preds = %lean_alloc_ctor.exit, %lean_dec.exit24
  %.0 = phi ptr [ %18, %lean_dec.exit24 ], [ %52, %lean_alloc_ctor.exit ]
  ret ptr %.0
}